; Function Attrs: nounwind uwtable
define dso_local range(i32 0, 2) i32 @nseq_main(i32 noundef %0, ptr noundef %1) local_unnamed_addr #0 {
  %3 = tail call ptr @opt_init(i32 noundef %0, ptr noundef %1, ptr noundef nonnull @nseq_options) #2
  br label %.outer

.outer:                                           ; preds = %4, %2
  %.not57 = phi i1 [ true, %2 ], [ false, %4 ]
  %.038.ph = phi ptr [ null, %2 ], [ %.038.ph114, %4 ]
  %.037.ph = phi ptr [ null, %2 ], [ %.037.ph117, %4 ]
  br label %.outer113

.outer113:                                        ; preds = %.outer, %9
  %.038.ph114 = phi ptr [ %.038.ph, %.outer ], [ %10, %9 ]
  %.037.ph115 = phi ptr [ %.037.ph, %.outer ], [ %.037.ph117, %9 ]
  br label %.outer116

.outer116:                                        ; preds = %.outer113, %11
  %.037.ph117 = phi ptr [ %.037.ph115, %.outer113 ], [ %12, %11 ]
  br label %4

4:                                                ; preds = %.backedge, %.outer116
  %5 = tail call i32 @opt_next() #2
  switch i32 %5, label %.backedge [
    i32 0, label %15
    i32 1602, label %13
    i32 -1, label %.loopexit64
    i32 1, label %8
    i32 2, label %.outer
    i32 3, label %9
    i32 4, label %11
    i32 1603, label %13
    i32 1604, label %13
    i32 1601, label %13
  ], !llvm.loop !4

.backedge:                                        ; preds = %4, %13
  br label %4, !llvm.loop !4

.loopexit64:                                      ; preds = %4, %15
  %6 = load ptr, ptr @bio_err, align 8, !tbaa !6
  %7 = tail call i32 (ptr, ptr, ...) @BIO_printf(ptr noundef %6, ptr noundef nonnull @.str.20, ptr noundef %3) #2
  br label %.loopexit

8:                                                ; preds = %4
  tail call void @opt_help(ptr noundef nonnull @nseq_options) #2
  br label %.loopexit

9:                                                ; preds = %4
  %10 = tail call ptr @opt_arg() #2
  br label %.outer113, !llvm.loop !4

11:                                               ; preds = %4
  %12 = tail call ptr @opt_arg() #2
  br label %.outer116, !llvm.loop !4

13:                                               ; preds = %4, %4, %4, %4
  %14 = tail call i32 @opt_provider(i32 noundef %5) #2
  %.not61 = icmp eq i32 %14, 0
  br i1 %.not61, label %.loopexit, label %.backedge

15:                                               ; preds = %4
  %16 = tail call i32 @opt_check_rest_arg(ptr noundef null) #2
  %.not56 = icmp eq i32 %16, 0
  br i1 %.not56, label %.loopexit64, label %17

17:                                               ; preds = %15
  %18 = tail call ptr @bio_open_default(ptr noundef %.038.ph114, i8 noundef signext 114, i32 noundef 32773) #2
  %19 = icmp eq ptr %18, null
  br i1 %19, label %.loopexit, label %20

20:                                               ; preds = %17
  %21 = tail call ptr @bio_open_default(ptr noundef %.037.ph117, i8 noundef signext 119, i32 noundef 32773) #2
  %22 = icmp eq ptr %21, null
  br i1 %22, label %.loopexit, label %23

23:                                               ; preds = %20
  br i1 %.not57, label %43, label %24

24:                                               ; preds = %23
  %25 = tail call ptr @NETSCAPE_CERT_SEQUENCE_new() #2
  %26 = icmp eq ptr %25, null
  br i1 %26, label %.loopexit, label %27

27:                                               ; preds = %24
  %28 = tail call ptr @OPENSSL_sk_new_null() #2
  %29 = getelementptr inbounds nuw i8, ptr %25, i64 8
  store ptr %28, ptr %29, align 8, !tbaa !11
  %30 = icmp eq ptr %28, null
  br i1 %30, label %.loopexit, label %.preheader62

.preheader62:                                     ; preds = %27, %33
  %31 = tail call ptr @PEM_read_bio_X509(ptr noundef nonnull %18, ptr noundef null, ptr noundef null, ptr noundef null) #2
  %.not58 = icmp eq ptr %31, null
  %32 = load ptr, ptr %29, align 8, !tbaa !11
  br i1 %.not58, label %35, label %33

33:                                               ; preds = %.preheader62
  %34 = tail call i32 @OPENSSL_sk_push(ptr noundef %32, ptr noundef nonnull %31) #2
  %.not60 = icmp eq i32 %34, 0
  br i1 %.not60, label %.loopexit, label %.preheader62, !llvm.loop !15

35:                                               ; preds = %.preheader62
  %36 = tail call i32 @OPENSSL_sk_num(ptr noundef %32) #2
  %.not59 = icmp eq i32 %36, 0
  br i1 %.not59, label %37, label %41

37:                                               ; preds = %35
  %38 = load ptr, ptr @bio_err, align 8, !tbaa !6
  %39 = tail call i32 (ptr, ptr, ...) @BIO_printf(ptr noundef %38, ptr noundef nonnull @.str.21, ptr noundef %3, ptr noundef %.038.ph114) #2
  %40 = load ptr, ptr @bio_err, align 8, !tbaa !6
  tail call void @ERR_print_errors(ptr noundef %40) #2
  br label %.loopexit

41:                                               ; preds = %35
  %42 = tail call i32 @PEM_write_bio_NETSCAPE_CERT_SEQUENCE(ptr noundef nonnull %21, ptr noundef nonnull %25) #2
  br label %.loopexit

43:                                               ; preds = %23
  %44 = tail call ptr @PEM_read_bio_NETSCAPE_CERT_SEQUENCE(ptr noundef nonnull %18, ptr noundef null, ptr noundef null, ptr noundef null) #2
  %45 = icmp eq ptr %44, null
  br i1 %45, label %50, label %.preheader

.preheader:                                       ; preds = %43
  %46 = getelementptr inbounds nuw i8, ptr %44, i64 8
  %47 = load ptr, ptr %46, align 8, !tbaa !11
  %48 = tail call i32 @OPENSSL_sk_num(ptr noundef %47) #2
  %49 = icmp sgt i32 %48, 0
  br i1 %49, label %.lr.ph, label %.loopexit

50:                                               ; preds = %43
  %51 = load ptr, ptr @bio_err, align 8, !tbaa !6
  %52 = tail call i32 (ptr, ptr, ...) @BIO_printf(ptr noundef %51, ptr noundef nonnull @.str.22, ptr noundef %3, ptr noundef %.038.ph114) #2
  %53 = load ptr, ptr @bio_err, align 8, !tbaa !6
  tail call void @ERR_print_errors(ptr noundef %53) #2
  br label %.loopexit

.lr.ph:                                           ; preds = %.preheader, %.lr.ph
  %.04075 = phi i32 [ %57, %.lr.ph ], [ 0, %.preheader ]
  %54 = load ptr, ptr %46, align 8, !tbaa !11
  %55 = tail call ptr @OPENSSL_sk_value(ptr noundef %54, i32 noundef %.04075) #2
  tail call void @dump_cert_text(ptr noundef nonnull %21, ptr noundef %55) #2
  %56 = tail call i32 @PEM_write_bio_X509(ptr noundef nonnull %21, ptr noundef %55) #2
  %57 = add nuw nsw i32 %.04075, 1
  %58 = load ptr, ptr %46, align 8, !tbaa !11
  %59 = tail call i32 @OPENSSL_sk_num(ptr noundef %58) #2
  %60 = icmp slt i32 %57, %59
  br i1 %60, label %.lr.ph, label %.loopexit, !llvm.loop !16

.loopexit:                                        ; preds = %13, %33, %.lr.ph, %.preheader, %27, %24, %20, %17, %50, %41, %37, %8, %.loopexit64
  %.045 = phi ptr [ null, %8 ], [ null, %.loopexit64 ], [ null, %17 ], [ null, %20 ], [ null, %24 ], [ %25, %27 ], [ %25, %41 ], [ %25, %37 ], [ null, %50 ], [ %44, %.preheader ], [ %44, %.lr.ph ], [ %25, %33 ], [ null, %13 ]
  %.044 = phi ptr [ null, %8 ], [ null, %.loopexit64 ], [ null, %17 ], [ null, %20 ], [ %21, %24 ], [ %21, %27 ], [ %21, %41 ], [ %21, %37 ], [ %21, %50 ], [ %21, %.preheader ], [ %21, %.lr.ph ], [ %21, %33 ], [ null, %13 ]
  %.041 = phi i32 [ 0, %8 ], [ 1, %.loopexit64 ], [ 1, %17 ], [ 1, %20 ], [ 1, %24 ], [ 1, %27 ], [ 0, %41 ], [ 1, %37 ], [ 1, %50 ], [ 0, %.preheader ], [ 0, %.lr.ph ], [ 1, %33 ], [ 1, %13 ]
  %.0 = phi ptr [ null, %8 ], [ null, %.loopexit64 ], [ null, %17 ], [ %18, %20 ], [ %18, %24 ], [ %18, %27 ], [ %18, %41 ], [ %18, %37 ], [ %18, %50 ], [ %18, %.preheader ], [ %18, %.lr.ph ], [ %18, %33 ], [ null, %13 ]
  %61 = tail call i32 @BIO_free(ptr noundef %.0) #2
  tail call void @BIO_free_all(ptr noundef %.044) #2
  tail call void @NETSCAPE_CERT_SEQUENCE_free(ptr noundef %.045) #2
  ret i32 %.041
}